target datalayout = "e-m:e-p270:32:32-p271:32:32-p272:64:64-i64:64-i128:128-f80:128-n8:16:32:64-S128"
target triple = "x86_64-pc-linux-gnu"

@proto_register_xot.ett = internal global [1 x ptr] [ptr @ett_xot], align 8
@.str.39 = private unnamed_addr constant [14 x i8] c"X.25 over TCP\00", align 1
@.str.40 = private unnamed_addr constant [4 x i8] c"XOT\00", align 1
@.str.41 = private unnamed_addr constant [4 x i8] c"xot\00", align 1
@proto_xot = internal global i32 0, align 4
@xot_handle = internal global ptr null, align 8
@xot_tcp_handle = internal global ptr null, align 8
@.str.42 = private unnamed_addr constant [10 x i8] c"desegment\00", align 1
@.str.43 = private unnamed_addr constant [65 x i8] c"Reassemble X.25-over-TCP messages spanning multiple TCP segments\00", align 1
@.str.44 = private unnamed_addr constant [213 x i8] c"Whether the X.25-over-TCP dissector should reassemble messages spanning multiple TCP segments. To use this option, you must also enable \22Allow subdissectors to reassemble TCP streams\22 in the TCP protocol settings\00", align 1
@xot_desegment = internal global i8 1, align 1
@.str.45 = private unnamed_addr constant [14 x i8] c"x25_desegment\00", align 1
@.str.46 = private unnamed_addr constant [70 x i8] c"Reassemble X.25 packets with More flag to enable safe X.25 reassembly\00", align 1
@x25_desegment = internal global i8 0, align 1

; Function Attrs: null_pointer_is_valid sspstrong uwtable
define hidden void @proto_register_xot() #0 {
  %1 = alloca ptr, align 8
  call void @llvm.lifetime.start.p0(i64 8, ptr %1) #3
  %2 = call i32 @proto_register_protocol(ptr noundef @.str.39, ptr noundef @.str.40, ptr noundef @.str.41)
  store i32 %2, ptr @proto_xot, align 4
  %3 = load i32, ptr @proto_xot, align 4
  call void @proto_register_field_array(i32 noundef %3, ptr noundef @proto_register_xot.hf, i32 noundef 17)
  call void @proto_register_subtree_array(ptr noundef @proto_register_xot.ett, i32 noundef 1)
  %4 = load i32, ptr @proto_xot, align 4
  %5 = call ptr @register_dissector(ptr noundef @.str.41, ptr noundef @dissect_xot_tcp_heur, i32 noundef %4)
  store ptr %5, ptr @xot_handle, align 8
  %6 = load i32, ptr @proto_xot, align 4
  %7 = call ptr @create_dissector_handle(ptr noundef @dissect_xot_tcp, i32 noundef %6)
  store ptr %7, ptr @xot_tcp_handle, align 8
  %8 = load i32, ptr @proto_xot, align 4
  %9 = call ptr @prefs_register_protocol(i32 noundef %8, ptr noundef null)
  store ptr %9, ptr %1, align 8
  %10 = load ptr, ptr %1, align 8
  call void @prefs_register_bool_preference(ptr noundef %10, ptr noundef @.str.42, ptr noundef @.str.43, ptr noundef @.str.44, ptr noundef @xot_desegment)
  %11 = load ptr, ptr %1, align 8
  call void @prefs_register_bool_preference(ptr noundef %11, ptr noundef @.str.45, ptr noundef @.str.46, ptr noundef @.str.47, ptr noundef @x25_desegment)
  call void @llvm.lifetime.end.p0(i64 8, ptr %1) #3
  ret void
}