; Function Attrs: null_pointer_is_valid sspstrong uwtable
define hidden void @proto_register_xot() local_unnamed_addr #0 {
  %1 = tail call i32 @proto_register_protocol(ptr noundef nonnull @.str.39, ptr noundef nonnull @.str.40, ptr noundef nonnull @.str.41)
  store i32 %1, ptr @proto_xot, align 4
  tail call void @proto_register_field_array(i32 noundef %1, ptr noundef nonnull @proto_register_xot.hf, i32 noundef 17)
  tail call void @proto_register_subtree_array(ptr noundef nonnull @proto_register_xot.ett, i32 noundef 1)
  %2 = load i32, ptr @proto_xot, align 4
  %3 = tail call ptr @register_dissector(ptr noundef nonnull @.str.41, ptr noundef nonnull @dissect_xot_tcp_heur, i32 noundef %2)
  store ptr %3, ptr @xot_handle, align 8
  %4 = load i32, ptr @proto_xot, align 4
  %5 = tail call ptr @create_dissector_handle(ptr noundef nonnull @dissect_xot_tcp, i32 noundef %4)
  store ptr %5, ptr @xot_tcp_handle, align 8
  %6 = load i32, ptr @proto_xot, align 4
  %7 = tail call ptr @prefs_register_protocol(i32 noundef %6, ptr noundef null)
  tail call void @prefs_register_bool_preference(ptr noundef %7, ptr noundef nonnull @.str.42, ptr noundef nonnull @.str.43, ptr noundef nonnull @.str.44, ptr noundef nonnull @xot_desegment)
  tail call void @prefs_register_bool_preference(ptr noundef %7, ptr noundef nonnull @.str.45, ptr noundef nonnull @.str.46, ptr noundef nonnull @.str.47, ptr noundef nonnull @x25_desegment)
  ret void
}